target datalayout = "e-m:e-p270:32:32-p271:32:32-p272:64:64-i64:64-i128:128-f80:128-n8:16:32:64-S128"
target triple = "x86_64-pc-linux-gnu"

; Function Attrs: nounwind uwtable
define internal void @conv_down(ptr noundef %0, i32 noundef %1, ptr noundef %2, ptr noundef %3, i32 noundef %4, ptr noundef %5, ptr noundef %6, i32 noundef %7, i32 noundef %8, ptr noundef %9, i32 noundef %10) #1 {
  %12 = alloca ptr, align 8
  %13 = alloca i32, align 4
  %14 = alloca ptr, align 8
  %15 = alloca ptr, align 8
  %16 = alloca i32, align 4
  %17 = alloca ptr, align 8
  %18 = alloca ptr, align 8
  %19 = alloca i32, align 4
  %20 = alloca i32, align 4
  %21 = alloca ptr, align 8
  %22 = alloca i32, align 4
  %23 = alloca double, align 8
  %24 = alloca double, align 8
  %25 = alloca i32, align 4
  %26 = alloca i32, align 4
  %27 = alloca i32, align 4
  %28 = alloca double, align 8
  %29 = alloca double, align 8
  %30 = alloca i32, align 4
  %31 = alloca i32, align 4
  %32 = alloca double, align 8
  %33 = alloca i32, align 4
  %34 = alloca i32, align 4
  %35 = alloca double, align 8
  store ptr %0, ptr %12, align 8, !tbaa !102
  store i32 %1, ptr %13, align 4, !tbaa !24
  store ptr %2, ptr %14, align 8, !tbaa !102
  store ptr %3, ptr %15, align 8, !tbaa !102
  store i32 %4, ptr %16, align 4, !tbaa !24
  store ptr %5, ptr %17, align 8, !tbaa !102
  store ptr %6, ptr %18, align 8, !tbaa !102
  store i32 %7, ptr %19, align 4, !tbaa !24
  store i32 %8, ptr %20, align 4, !tbaa !24
  store ptr %9, ptr %21, align 8, !tbaa !102
  store i32 %10, ptr %22, align 4, !tbaa !24
  call void @llvm.lifetime.start.p0(i64 8, ptr %23) #12
  store double 0.000000e+00, ptr %23, align 8, !tbaa !103
  call void @llvm.lifetime.start.p0(i64 8, ptr %24) #12
  store double 0.000000e+00, ptr %24, align 8, !tbaa !103
  call void @llvm.lifetime.start.p0(i64 4, ptr %25) #12
  %36 = load i32, ptr %20, align 4, !tbaa !24
  %37 = add nsw i32 1, %36
  store i32 %37, ptr %25, align 4, !tbaa !24
  %38 = load ptr, ptr %21, align 8, !tbaa !102
  %39 = load ptr, ptr %12, align 8, !tbaa !102
  %40 = load i32, ptr %25, align 4, !tbaa !24
  %41 = sext i32 %40 to i64
  %42 = mul i64 %41, 8
  call void @llvm.memcpy.p0.p0.i64(ptr align 8 %38, ptr align 8 %39, i64 %42, i1 false)
  %43 = load ptr, ptr %21, align 8, !tbaa !102
  %44 = load i32, ptr %25, align 4, !tbaa !24
  %45 = sext i32 %44 to i64
  %46 = getelementptr inbounds double, ptr %43, i64 %45
  %47 = load i32, ptr %22, align 4, !tbaa !24
  %48 = load i32, ptr %25, align 4, !tbaa !24
  %49 = sub nsw i32 %47, %48
  %50 = sext i32 %49 to i64
  %51 = mul i64 %50, 8
  call void @llvm.memset.p0.i64(ptr align 8 %46, i8 0, i64 %51, i1 false)
  call void @llvm.lifetime.start.p0(i64 4, ptr %26) #12
  store i32 0, ptr %26, align 4, !tbaa !24
  br label %52

52:                                               ; preds = %140, %11
  %53 = load i32, ptr %26, align 4, !tbaa !24
  %54 = load i32, ptr %16, align 4, !tbaa !24
  %55 = sub nsw i32 %54, 1
  %56 = icmp slt i32 %53, %55
  br i1 %56, label %58, label %57

57:                                               ; preds = %52
  store i32 2, ptr %27, align 4
  call void @llvm.lifetime.end.p0(i64 4, ptr %26) #12
  br label %143

58:                                               ; preds = %52
  call void @llvm.lifetime.start.p0(i64 8, ptr %28) #12
  store double 0.000000e+00, ptr %28, align 8, !tbaa !103
  call void @llvm.lifetime.start.p0(i64 8, ptr %29) #12
  store double 0.000000e+00, ptr %29, align 8, !tbaa !103
  call void @llvm.lifetime.start.p0(i64 4, ptr %30) #12
  store i32 0, ptr %30, align 4, !tbaa !24
  br label %59

59:                                               ; preds = %94, %58
  %60 = load i32, ptr %30, align 4, !tbaa !24
  %61 = load i32, ptr %19, align 4, !tbaa !24
  %62 = icmp slt i32 %60, %61
  br i1 %62, label %64, label %63

63:                                               ; preds = %59
  store i32 5, ptr %27, align 4
  call void @llvm.lifetime.end.p0(i64 4, ptr %30) #12
  br label %97

64:                                               ; preds = %59
  call void @llvm.lifetime.start.p0(i64 4, ptr %31) #12
  %65 = load i32, ptr %30, align 4, !tbaa !24
  %66 = sub nsw i32 0, %65
  %67 = load i32, ptr %25, align 4, !tbaa !24
  %68 = add nsw i32 %66, %67
  %69 = sub nsw i32 %68, 1
  %70 = load i32, ptr %22, align 4, !tbaa !24
  %71 = sub nsw i32 %70, 1
  %72 = and i32 %69, %71
  store i32 %72, ptr %31, align 4, !tbaa !24
  call void @llvm.lifetime.start.p0(i64 8, ptr %32) #12
  %73 = load ptr, ptr %21, align 8, !tbaa !102
  %74 = load i32, ptr %31, align 4, !tbaa !24
  %75 = sext i32 %74 to i64
  %76 = getelementptr inbounds double, ptr %73, i64 %75
  %77 = load double, ptr %76, align 8, !tbaa !103
  store double %77, ptr %32, align 8, !tbaa !103
  %78 = load double, ptr %32, align 8, !tbaa !103
  %79 = load ptr, ptr %18, align 8, !tbaa !102
  %80 = load i32, ptr %30, align 4, !tbaa !24
  %81 = sext i32 %80 to i64
  %82 = getelementptr inbounds double, ptr %79, i64 %81
  %83 = load double, ptr %82, align 8, !tbaa !103
  %84 = load double, ptr %28, align 8, !tbaa !103
  %85 = call nsz double @llvm.fmuladd.f64(double %78, double %83, double %84)
  store double %85, ptr %28, align 8, !tbaa !103
  %86 = load double, ptr %32, align 8, !tbaa !103
  %87 = load ptr, ptr %17, align 8, !tbaa !102
  %88 = load i32, ptr %30, align 4, !tbaa !24
  %89 = sext i32 %88 to i64
  %90 = getelementptr inbounds double, ptr %87, i64 %89
  %91 = load double, ptr %90, align 8, !tbaa !103
  %92 = load double, ptr %29, align 8, !tbaa !103
  %93 = call nsz double @llvm.fmuladd.f64(double %86, double %91, double %92)
  store double %93, ptr %29, align 8, !tbaa !103
  call void @llvm.lifetime.end.p0(i64 8, ptr %32) #12
  call void @llvm.lifetime.end.p0(i64 4, ptr %31) #12
  br label %94

94:                                               ; preds = %64
  %95 = load i32, ptr %30, align 4, !tbaa !24
  %96 = add nsw i32 %95, 1
  store i32 %96, ptr %30, align 4, !tbaa !24
  br label %59, !llvm.loop !136

97:                                               ; preds = %63
  %98 = load double, ptr %28, align 8, !tbaa !103
  %99 = load ptr, ptr %15, align 8, !tbaa !102
  %100 = load i32, ptr %26, align 4, !tbaa !24
  %101 = sext i32 %100 to i64
  %102 = getelementptr inbounds double, ptr %99, i64 %101
  store double %98, ptr %102, align 8, !tbaa !103
  %103 = load double, ptr %29, align 8, !tbaa !103
  %104 = load ptr, ptr %14, align 8, !tbaa !102
  %105 = load i32, ptr %26, align 4, !tbaa !24
  %106 = sext i32 %105 to i64
  %107 = getelementptr inbounds double, ptr %104, i64 %106
  store double %103, ptr %107, align 8, !tbaa !103
  %108 = load ptr, ptr %12, align 8, !tbaa !102
  %109 = load i32, ptr %26, align 4, !tbaa !24
  %110 = mul nsw i32 2, %109
  %111 = add nsw i32 %110, 1
  %112 = load i32, ptr %20, align 4, !tbaa !24
  %113 = add nsw i32 %111, %112
  %114 = sext i32 %113 to i64
  %115 = getelementptr inbounds double, ptr %108, i64 %114
  %116 = load double, ptr %115, align 8, !tbaa !103
  %117 = load ptr, ptr %21, align 8, !tbaa !102
  %118 = load i32, ptr %25, align 4, !tbaa !24
  %119 = add nsw i32 %118, 1
  store i32 %119, ptr %25, align 4, !tbaa !24
  %120 = sext i32 %118 to i64
  %121 = getelementptr inbounds double, ptr %117, i64 %120
  store double %116, ptr %121, align 8, !tbaa !103
  %122 = load ptr, ptr %12, align 8, !tbaa !102
  %123 = load i32, ptr %26, align 4, !tbaa !24
  %124 = mul nsw i32 2, %123
  %125 = add nsw i32 %124, 2
  %126 = load i32, ptr %20, align 4, !tbaa !24
  %127 = add nsw i32 %125, %126
  %128 = sext i32 %127 to i64
  %129 = getelementptr inbounds double, ptr %122, i64 %128
  %130 = load double, ptr %129, align 8, !tbaa !103
  %131 = load ptr, ptr %21, align 8, !tbaa !102
  %132 = load i32, ptr %25, align 4, !tbaa !24
  %133 = add nsw i32 %132, 1
  store i32 %133, ptr %25, align 4, !tbaa !24
  %134 = sext i32 %132 to i64
  %135 = getelementptr inbounds double, ptr %131, i64 %134
  store double %130, ptr %135, align 8, !tbaa !103
  %136 = load i32, ptr %25, align 4, !tbaa !24
  %137 = load i32, ptr %22, align 4, !tbaa !24
  %138 = sub nsw i32 %137, 1
  %139 = and i32 %136, %138
  store i32 %139, ptr %25, align 4, !tbaa !24
  call void @llvm.lifetime.end.p0(i64 8, ptr %29) #12
  call void @llvm.lifetime.end.p0(i64 8, ptr %28) #12
  br label %140

140:                                              ; preds = %97
  %141 = load i32, ptr %26, align 4, !tbaa !24
  %142 = add nsw i32 %141, 1
  store i32 %142, ptr %26, align 4, !tbaa !24
  br label %52, !llvm.loop !137

143:                                              ; preds = %57
  call void @llvm.lifetime.start.p0(i64 4, ptr %33) #12
  store i32 0, ptr %33, align 4, !tbaa !24
  br label %144

144:                                              ; preds = %179, %143
  %145 = load i32, ptr %33, align 4, !tbaa !24
  %146 = load i32, ptr %19, align 4, !tbaa !24
  %147 = icmp slt i32 %145, %146
  br i1 %147, label %149, label %148

148:                                              ; preds = %144
  store i32 8, ptr %27, align 4
  call void @llvm.lifetime.end.p0(i64 4, ptr %33) #12
  br label %182

149:                                              ; preds = %144
  call void @llvm.lifetime.start.p0(i64 4, ptr %34) #12
  %150 = load i32, ptr %33, align 4, !tbaa !24
  %151 = sub nsw i32 0, %150
  %152 = load i32, ptr %25, align 4, !tbaa !24
  %153 = add nsw i32 %151, %152
  %154 = sub nsw i32 %153, 1
  %155 = load i32, ptr %22, align 4, !tbaa !24
  %156 = sub nsw i32 %155, 1
  %157 = and i32 %154, %156
  store i32 %157, ptr %34, align 4, !tbaa !24
  call void @llvm.lifetime.start.p0(i64 8, ptr %35) #12
  %158 = load ptr, ptr %21, align 8, !tbaa !102
  %159 = load i32, ptr %34, align 4, !tbaa !24
  %160 = sext i32 %159 to i64
  %161 = getelementptr inbounds double, ptr %158, i64 %160
  %162 = load double, ptr %161, align 8, !tbaa !103
  store double %162, ptr %35, align 8, !tbaa !103
  %163 = load double, ptr %35, align 8, !tbaa !103
  %164 = load ptr, ptr %18, align 8, !tbaa !102
  %165 = load i32, ptr %33, align 4, !tbaa !24
  %166 = sext i32 %165 to i64
  %167 = getelementptr inbounds double, ptr %164, i64 %166
  %168 = load double, ptr %167, align 8, !tbaa !103
  %169 = load double, ptr %23, align 8, !tbaa !103
  %170 = call nsz double @llvm.fmuladd.f64(double %163, double %168, double %169)
  store double %170, ptr %23, align 8, !tbaa !103
  %171 = load double, ptr %35, align 8, !tbaa !103
  %172 = load ptr, ptr %17, align 8, !tbaa !102
  %173 = load i32, ptr %33, align 4, !tbaa !24
  %174 = sext i32 %173 to i64
  %175 = getelementptr inbounds double, ptr %172, i64 %174
  %176 = load double, ptr %175, align 8, !tbaa !103
  %177 = load double, ptr %24, align 8, !tbaa !103
  %178 = call nsz double @llvm.fmuladd.f64(double %171, double %176, double %177)
  store double %178, ptr %24, align 8, !tbaa !103
  call void @llvm.lifetime.end.p0(i64 8, ptr %35) #12
  call void @llvm.lifetime.end.p0(i64 4, ptr %34) #12
  br label %179

179:                                              ; preds = %149
  %180 = load i32, ptr %33, align 4, !tbaa !24
  %181 = add nsw i32 %180, 1
  store i32 %181, ptr %33, align 4, !tbaa !24
  br label %144, !llvm.loop !138

182:                                              ; preds = %148
  %183 = load double, ptr %23, align 8, !tbaa !103
  %184 = load ptr, ptr %15, align 8, !tbaa !102
  %185 = load i32, ptr %16, align 4, !tbaa !24
  %186 = sub nsw i32 %185, 1
  %187 = sext i32 %186 to i64
  %188 = getelementptr inbounds double, ptr %184, i64 %187
  store double %183, ptr %188, align 8, !tbaa !103
  %189 = load double, ptr %24, align 8, !tbaa !103
  %190 = load ptr, ptr %14, align 8, !tbaa !102
  %191 = load i32, ptr %16, align 4, !tbaa !24
  %192 = sub nsw i32 %191, 1
  %193 = sext i32 %192 to i64
  %194 = getelementptr inbounds double, ptr %190, i64 %193
  store double %189, ptr %194, align 8, !tbaa !103
  call void @llvm.lifetime.end.p0(i64 4, ptr %25) #12
  call void @llvm.lifetime.end.p0(i64 8, ptr %24) #12
  call void @llvm.lifetime.end.p0(i64 8, ptr %23) #12
  ret void
}