; Function Attrs: nofree norecurse nosync nounwind memory(argmem: readwrite) uwtable
define internal fastcc void @conv_down(ptr noundef readonly captures(none) %0, ptr noundef writeonly captures(none) %1, ptr noundef writeonly captures(none) %2, i32 noundef %3, ptr noundef readonly captures(none) %4, ptr noundef readonly captures(none) %5, i32 noundef %6, i32 noundef range(i32 -2147483648, 2147483647) %7, ptr noundef captures(none) %8, i32 noundef %9) unnamed_addr #8 {
  %11 = add nsw i32 %7, 1
  %12 = sext i32 %11 to i64
  %13 = shl nsw i64 %12, 3
  tail call void @llvm.memcpy.p0.p0.i64(ptr align 8 %8, ptr align 8 %0, i64 %13, i1 false)
  %14 = getelementptr inbounds double, ptr %8, i64 %12
  %15 = sub nsw i32 %9, %11
  %16 = sext i32 %15 to i64
  %17 = shl nsw i64 %16, 3
  tail call void @llvm.memset.p0.i64(ptr align 8 %14, i8 0, i64 %17, i1 false)
  %18 = add i32 %3, -1
  %19 = icmp sgt i32 %3, 1
  br i1 %19, label %.preheader74.lr.ph, label %.preheader

.preheader74.lr.ph:                               ; preds = %10
  %20 = icmp sgt i32 %6, 0
  %21 = add nsw i32 %9, -1
  %22 = add i32 %7, 2
  %wide.trip.count103 = zext nneg i32 %18 to i64
  br i1 %20, label %.preheader74.us.preheader, label %.preheader74

.preheader74.us.preheader:                        ; preds = %.preheader74.lr.ph
  %wide.trip.count98 = zext nneg i32 %6 to i64
  br label %.preheader74.us

.preheader74.us:                                  ; preds = %.preheader74.us.preheader, %._crit_edge.us
  %indvars.iv100 = phi i64 [ 0, %.preheader74.us.preheader ], [ %indvars.iv.next101, %._crit_edge.us ]
  %.06880.us = phi i32 [ %11, %.preheader74.us.preheader ], [ %52, %._crit_edge.us ]
  br label %23

23:                                               ; preds = %.preheader74.us, %23
  %indvars.iv95 = phi i64 [ 0, %.preheader74.us ], [ %indvars.iv.next96, %23 ]
  %.07176.us = phi double [ 0.000000e+00, %.preheader74.us ], [ %36, %23 ]
  %.07275.us = phi double [ 0.000000e+00, %.preheader74.us ], [ %33, %23 ]
  %24 = trunc nuw nsw i64 %indvars.iv95 to i32
  %25 = xor i32 %24, -1
  %26 = add i32 %.06880.us, %25
  %27 = and i32 %26, %21
  %28 = sext i32 %27 to i64
  %29 = getelementptr inbounds double, ptr %8, i64 %28
  %30 = load double, ptr %29, align 8, !tbaa !108
  %31 = getelementptr inbounds nuw double, ptr %5, i64 %indvars.iv95
  %32 = load double, ptr %31, align 8, !tbaa !108
  %33 = tail call nsz double @llvm.fmuladd.f64(double %30, double %32, double %.07275.us)
  %34 = getelementptr inbounds nuw double, ptr %4, i64 %indvars.iv95
  %35 = load double, ptr %34, align 8, !tbaa !108
  %36 = tail call nsz double @llvm.fmuladd.f64(double %30, double %35, double %.07176.us)
  %indvars.iv.next96 = add nuw nsw i64 %indvars.iv95, 1
  %exitcond99.not = icmp eq i64 %indvars.iv.next96, %wide.trip.count98
  br i1 %exitcond99.not, label %._crit_edge.us, label %23, !llvm.loop !129

._crit_edge.us:                                   ; preds = %23
  %37 = getelementptr inbounds nuw double, ptr %2, i64 %indvars.iv100
  store double %33, ptr %37, align 8, !tbaa !108
  %38 = getelementptr inbounds nuw double, ptr %1, i64 %indvars.iv100
  store double %36, ptr %38, align 8, !tbaa !108
  %indvars.iv100.tr = trunc i64 %indvars.iv100 to i32
  %39 = shl i32 %indvars.iv100.tr, 1
  %40 = add i32 %11, %39
  %41 = sext i32 %40 to i64
  %42 = getelementptr inbounds double, ptr %0, i64 %41
  %43 = load double, ptr %42, align 8, !tbaa !108
  %44 = sext i32 %.06880.us to i64
  %45 = getelementptr inbounds double, ptr %8, i64 %44
  store double %43, ptr %45, align 8, !tbaa !108
  %46 = add i32 %22, %39
  %47 = sext i32 %46 to i64
  %48 = getelementptr inbounds double, ptr %0, i64 %47
  %49 = load double, ptr %48, align 8, !tbaa !108
  %50 = add nsw i32 %.06880.us, 2
  %51 = getelementptr i8, ptr %45, i64 8
  store double %49, ptr %51, align 8, !tbaa !108
  %52 = and i32 %50, %21
  %indvars.iv.next101 = add nuw nsw i64 %indvars.iv100, 1
  %exitcond104.not = icmp eq i64 %indvars.iv.next101, %wide.trip.count103
  br i1 %exitcond104.not, label %.preheader, label %.preheader74.us, !llvm.loop !130

.preheader74:                                     ; preds = %.preheader74.lr.ph, %.preheader74
  %indvars.iv = phi i64 [ %indvars.iv.next, %.preheader74 ], [ 0, %.preheader74.lr.ph ]
  %.06880 = phi i32 [ %68, %.preheader74 ], [ %11, %.preheader74.lr.ph ]
  %53 = getelementptr inbounds nuw double, ptr %2, i64 %indvars.iv
  store double 0.000000e+00, ptr %53, align 8, !tbaa !108
  %54 = getelementptr inbounds nuw double, ptr %1, i64 %indvars.iv
  store double 0.000000e+00, ptr %54, align 8, !tbaa !108
  %indvars.iv.tr = trunc i64 %indvars.iv to i32
  %55 = shl i32 %indvars.iv.tr, 1
  %56 = add i32 %11, %55
  %57 = sext i32 %56 to i64
  %58 = getelementptr inbounds double, ptr %0, i64 %57
  %59 = load double, ptr %58, align 8, !tbaa !108
  %60 = sext i32 %.06880 to i64
  %61 = getelementptr inbounds double, ptr %8, i64 %60
  store double %59, ptr %61, align 8, !tbaa !108
  %62 = add i32 %22, %55
  %63 = sext i32 %62 to i64
  %64 = getelementptr inbounds double, ptr %0, i64 %63
  %65 = load double, ptr %64, align 8, !tbaa !108
  %66 = add nsw i32 %.06880, 2
  %67 = getelementptr i8, ptr %61, i64 8
  store double %65, ptr %67, align 8, !tbaa !108
  %68 = and i32 %66, %21
  %indvars.iv.next = add nuw nsw i64 %indvars.iv, 1
  %exitcond.not = icmp eq i64 %indvars.iv.next, %wide.trip.count103
  br i1 %exitcond.not, label %._crit_edge, label %.preheader74, !llvm.loop !130

.preheader:                                       ; preds = %._crit_edge.us, %10
  %.068.lcssa = phi i32 [ %11, %10 ], [ %52, %._crit_edge.us ]
  %69 = icmp sgt i32 %6, 0
  br i1 %69, label %.lr.ph, label %._crit_edge

.lr.ph:                                           ; preds = %.preheader
  %70 = add nsw i32 %9, -1
  %wide.trip.count108 = zext nneg i32 %6 to i64
  br label %74

._crit_edge:                                      ; preds = %.preheader74, %74, %.preheader
  %.066.lcssa = phi double [ 0.000000e+00, %.preheader ], [ %87, %74 ], [ 0.000000e+00, %.preheader74 ]
  %.0.lcssa = phi double [ 0.000000e+00, %.preheader ], [ %84, %74 ], [ 0.000000e+00, %.preheader74 ]
  %71 = sext i32 %18 to i64
  %72 = getelementptr inbounds double, ptr %2, i64 %71
  store double %.0.lcssa, ptr %72, align 8, !tbaa !108
  %73 = getelementptr inbounds double, ptr %1, i64 %71
  store double %.066.lcssa, ptr %73, align 8, !tbaa !108
  ret void

74:                                               ; preds = %.lr.ph, %74
  %indvars.iv105 = phi i64 [ 0, %.lr.ph ], [ %indvars.iv.next106, %74 ]
  %.086 = phi double [ 0.000000e+00, %.lr.ph ], [ %84, %74 ]
  %.06685 = phi double [ 0.000000e+00, %.lr.ph ], [ %87, %74 ]
  %75 = trunc nuw nsw i64 %indvars.iv105 to i32
  %76 = xor i32 %75, -1
  %77 = add i32 %.068.lcssa, %76
  %78 = and i32 %77, %70
  %79 = sext i32 %78 to i64
  %80 = getelementptr inbounds double, ptr %8, i64 %79
  %81 = load double, ptr %80, align 8, !tbaa !108
  %82 = getelementptr inbounds nuw double, ptr %5, i64 %indvars.iv105
  %83 = load double, ptr %82, align 8, !tbaa !108
  %84 = tail call nsz double @llvm.fmuladd.f64(double %81, double %83, double %.086)
  %85 = getelementptr inbounds nuw double, ptr %4, i64 %indvars.iv105
  %86 = load double, ptr %85, align 8, !tbaa !108
  %87 = tail call nsz double @llvm.fmuladd.f64(double %81, double %86, double %.06685)
  %indvars.iv.next106 = add nuw nsw i64 %indvars.iv105, 1
  %exitcond109.not = icmp eq i64 %indvars.iv.next106, %wide.trip.count108
  br i1 %exitcond109.not, label %._crit_edge, label %74, !llvm.loop !131
}